target datalayout = "e-m:e-p270:32:32-p271:32:32-p272:64:64-i64:64-i128:128-f80:128-n8:16:32:64-S128"
target triple = "x86_64-pc-linux-gnu"

%"class.cv::UMat" = type { i32, i32, i32, i32, ptr, i32, ptr, i64, %"struct.cv::MatSize", %"struct.cv::MatStep" }
%"struct.cv::MatSize" = type { ptr }
%"struct.cv::MatStep" = type { ptr, [2 x i64] }

; Function Attrs: inlinehint mustprogress nounwind uwtable
define linkonce_odr void @_ZSt4swapIPmENSt9enable_ifIXsr6__and_ISt6__not_ISt15__is_tuple_likeIT_EESt21is_move_constructibleIS4_ESt18is_move_assignableIS4_EEE5valueEvE4typeERS4_SD_(ptr noundef nonnull align 8 dereferenceable(8) %0, ptr noundef nonnull align 8 dereferenceable(8) %1) #5 comdat {
  %3 = alloca ptr, align 8
  %4 = alloca ptr, align 8
  %5 = alloca ptr, align 8
  store ptr %0, ptr %3, align 8, !tbaa !112
  store ptr %1, ptr %4, align 8, !tbaa !112
  call void @llvm.lifetime.start.p0(i64 8, ptr %5) #16
  %6 = load ptr, ptr %3, align 8, !tbaa !112
  %7 = load ptr, ptr %6, align 8, !tbaa !109
  store ptr %7, ptr %5, align 8, !tbaa !109
  %8 = load ptr, ptr %4, align 8, !tbaa !112
  %9 = load ptr, ptr %8, align 8, !tbaa !109
  %10 = load ptr, ptr %3, align 8, !tbaa !112
  store ptr %9, ptr %10, align 8, !tbaa !109
  %11 = load ptr, ptr %5, align 8, !tbaa !109
  %12 = load ptr, ptr %4, align 8, !tbaa !112
  store ptr %11, ptr %12, align 8, !tbaa !109
  call void @llvm.lifetime.end.p0(i64 8, ptr %5) #16
  ret void
}

; Function Attrs: inlinehint mustprogress nounwind uwtable
define linkonce_odr void @_ZSt4swapIPiENSt9enable_ifIXsr6__and_ISt6__not_ISt15__is_tuple_likeIT_EESt21is_move_constructibleIS4_ESt18is_move_assignableIS4_EEE5valueEvE4typeERS4_SD_(ptr noundef nonnull align 8 dereferenceable(8) %0, ptr noundef nonnull align 8 dereferenceable(8) %1) #5 comdat {
  %3 = alloca ptr, align 8
  %4 = alloca ptr, align 8
  %5 = alloca ptr, align 8
  store ptr %0, ptr %3, align 8, !tbaa !110
  store ptr %1, ptr %4, align 8, !tbaa !110
  call void @llvm.lifetime.start.p0(i64 8, ptr %5) #16
  %6 = load ptr, ptr %3, align 8, !tbaa !110
  %7 = load ptr, ptr %6, align 8, !tbaa !84
  store ptr %7, ptr %5, align 8, !tbaa !84
  %8 = load ptr, ptr %4, align 8, !tbaa !110
  %9 = load ptr, ptr %8, align 8, !tbaa !84
  %10 = load ptr, ptr %3, align 8, !tbaa !110
  store ptr %9, ptr %10, align 8, !tbaa !84
  %11 = load ptr, ptr %5, align 8, !tbaa !84
  %12 = load ptr, ptr %4, align 8, !tbaa !110
  store ptr %11, ptr %12, align 8, !tbaa !84
  call void @llvm.lifetime.end.p0(i64 8, ptr %5) #16
  ret void
}

; Function Attrs: inlinehint mustprogress nounwind uwtable
define linkonce_odr void @_ZSt4swapImENSt9enable_ifIXsr6__and_ISt6__not_ISt15__is_tuple_likeIT_EESt21is_move_constructibleIS3_ESt18is_move_assignableIS3_EEE5valueEvE4typeERS3_SC_(ptr noundef nonnull align 8 dereferenceable(8) %0, ptr noundef nonnull align 8 dereferenceable(8) %1) #5 comdat {
  %3 = alloca ptr, align 8
  %4 = alloca ptr, align 8
  %5 = alloca i64, align 8
  store ptr %0, ptr %3, align 8, !tbaa !109
  store ptr %1, ptr %4, align 8, !tbaa !109
  call void @llvm.lifetime.start.p0(i64 8, ptr %5) #16
  %6 = load ptr, ptr %3, align 8, !tbaa !109
  %7 = load i64, ptr %6, align 8, !tbaa !50
  store i64 %7, ptr %5, align 8, !tbaa !50
  %8 = load ptr, ptr %4, align 8, !tbaa !109
  %9 = load i64, ptr %8, align 8, !tbaa !50
  %10 = load ptr, ptr %3, align 8, !tbaa !109
  store i64 %9, ptr %10, align 8, !tbaa !50
  %11 = load i64, ptr %5, align 8, !tbaa !50
  %12 = load ptr, ptr %4, align 8, !tbaa !109
  store i64 %11, ptr %12, align 8, !tbaa !50
  call void @llvm.lifetime.end.p0(i64 8, ptr %5) #16
  ret void
}

; Function Attrs: inlinehint mustprogress nounwind uwtable
define linkonce_odr void @_ZSt4swapIPN2cv8UMatDataEENSt9enable_ifIXsr6__and_ISt6__not_ISt15__is_tuple_likeIT_EESt21is_move_constructibleIS6_ESt18is_move_assignableIS6_EEE5valueEvE4typeERS6_SF_(ptr noundef nonnull align 8 dereferenceable(8) %0, ptr noundef nonnull align 8 dereferenceable(8) %1) #5 comdat {
  %3 = alloca ptr, align 8
  %4 = alloca ptr, align 8
  %5 = alloca ptr, align 8
  store ptr %0, ptr %3, align 8, !tbaa !60
  store ptr %1, ptr %4, align 8, !tbaa !60
  call void @llvm.lifetime.start.p0(i64 8, ptr %5) #16
  %6 = load ptr, ptr %3, align 8, !tbaa !60
  %7 = load ptr, ptr %6, align 8, !tbaa !3
  store ptr %7, ptr %5, align 8, !tbaa !3
  %8 = load ptr, ptr %4, align 8, !tbaa !60
  %9 = load ptr, ptr %8, align 8, !tbaa !3
  %10 = load ptr, ptr %3, align 8, !tbaa !60
  store ptr %9, ptr %10, align 8, !tbaa !3
  %11 = load ptr, ptr %5, align 8, !tbaa !3
  %12 = load ptr, ptr %4, align 8, !tbaa !60
  store ptr %11, ptr %12, align 8, !tbaa !3
  call void @llvm.lifetime.end.p0(i64 8, ptr %5) #16
  ret void
}

; Function Attrs: inlinehint mustprogress nounwind uwtable
define linkonce_odr void @_ZSt4swapIPN2cv12MatAllocatorEENSt9enable_ifIXsr6__and_ISt6__not_ISt15__is_tuple_likeIT_EESt21is_move_constructibleIS6_ESt18is_move_assignableIS6_EEE5valueEvE4typeERS6_SF_(ptr noundef nonnull align 8 dereferenceable(8) %0, ptr noundef nonnull align 8 dereferenceable(8) %1) #5 comdat {
  %3 = alloca ptr, align 8
  %4 = alloca ptr, align 8
  %5 = alloca ptr, align 8
  store ptr %0, ptr %3, align 8, !tbaa !107
  store ptr %1, ptr %4, align 8, !tbaa !107
  call void @llvm.lifetime.start.p0(i64 8, ptr %5) #16
  %6 = load ptr, ptr %3, align 8, !tbaa !107
  %7 = load ptr, ptr %6, align 8, !tbaa !8
  store ptr %7, ptr %5, align 8, !tbaa !8
  %8 = load ptr, ptr %4, align 8, !tbaa !107
  %9 = load ptr, ptr %8, align 8, !tbaa !8
  %10 = load ptr, ptr %3, align 8, !tbaa !107
  store ptr %9, ptr %10, align 8, !tbaa !8
  %11 = load ptr, ptr %5, align 8, !tbaa !8
  %12 = load ptr, ptr %4, align 8, !tbaa !107
  store ptr %11, ptr %12, align 8, !tbaa !8
  call void @llvm.lifetime.end.p0(i64 8, ptr %5) #16
  ret void
}

; Function Attrs: inlinehint mustprogress nounwind uwtable
define linkonce_odr void @_ZSt4swapIiENSt9enable_ifIXsr6__and_ISt6__not_ISt15__is_tuple_likeIT_EESt21is_move_constructibleIS3_ESt18is_move_assignableIS3_EEE5valueEvE4typeERS3_SC_(ptr noundef nonnull align 4 dereferenceable(4) %0, ptr noundef nonnull align 4 dereferenceable(4) %1) #5 comdat {
  %3 = alloca ptr, align 8
  %4 = alloca ptr, align 8
  %5 = alloca i32, align 4
  store ptr %0, ptr %3, align 8, !tbaa !84
  store ptr %1, ptr %4, align 8, !tbaa !84
  call void @llvm.lifetime.start.p0(i64 4, ptr %5) #16
  %6 = load ptr, ptr %3, align 8, !tbaa !84
  %7 = load i32, ptr %6, align 4, !tbaa !37
  store i32 %7, ptr %5, align 4, !tbaa !37
  %8 = load ptr, ptr %4, align 8, !tbaa !84
  %9 = load i32, ptr %8, align 4, !tbaa !37
  %10 = load ptr, ptr %3, align 8, !tbaa !84
  store i32 %9, ptr %10, align 4, !tbaa !37
  %11 = load i32, ptr %5, align 4, !tbaa !37
  %12 = load ptr, ptr %4, align 8, !tbaa !84
  store i32 %11, ptr %12, align 4, !tbaa !37
  call void @llvm.lifetime.end.p0(i64 4, ptr %5) #16
  ret void
}

; Function Attrs: mustprogress nounwind uwtable
define void @_ZN2cv4swapERNS_4UMatES1_(ptr noundef nonnull align 8 dereferenceable(80) %0, ptr noundef nonnull align 8 dereferenceable(80) %1) #0 {
  %3 = alloca ptr, align 8
  %4 = alloca ptr, align 8
  store ptr %0, ptr %3, align 8, !tbaa !65
  store ptr %1, ptr %4, align 8, !tbaa !65
  %5 = load ptr, ptr %3, align 8, !tbaa !65
  %6 = getelementptr inbounds nuw %"class.cv::UMat", ptr %5, i32 0, i32 0
  %7 = load ptr, ptr %4, align 8, !tbaa !65
  %8 = getelementptr inbounds nuw %"class.cv::UMat", ptr %7, i32 0, i32 0
  call void @_ZSt4swapIiENSt9enable_ifIXsr6__and_ISt6__not_ISt15__is_tuple_likeIT_EESt21is_move_constructibleIS3_ESt18is_move_assignableIS3_EEE5valueEvE4typeERS3_SC_(ptr noundef nonnull align 4 dereferenceable(4) %6, ptr noundef nonnull align 4 dereferenceable(4) %8) #16
  %9 = load ptr, ptr %3, align 8, !tbaa !65
  %10 = getelementptr inbounds nuw %"class.cv::UMat", ptr %9, i32 0, i32 1
  %11 = load ptr, ptr %4, align 8, !tbaa !65
  %12 = getelementptr inbounds nuw %"class.cv::UMat", ptr %11, i32 0, i32 1
  call void @_ZSt4swapIiENSt9enable_ifIXsr6__and_ISt6__not_ISt15__is_tuple_likeIT_EESt21is_move_constructibleIS3_ESt18is_move_assignableIS3_EEE5valueEvE4typeERS3_SC_(ptr noundef nonnull align 4 dereferenceable(4) %10, ptr noundef nonnull align 4 dereferenceable(4) %12) #16
  %13 = load ptr, ptr %3, align 8, !tbaa !65
  %14 = getelementptr inbounds nuw %"class.cv::UMat", ptr %13, i32 0, i32 2
  %15 = load ptr, ptr %4, align 8, !tbaa !65
  %16 = getelementptr inbounds nuw %"class.cv::UMat", ptr %15, i32 0, i32 2
  call void @_ZSt4swapIiENSt9enable_ifIXsr6__and_ISt6__not_ISt15__is_tuple_likeIT_EESt21is_move_constructibleIS3_ESt18is_move_assignableIS3_EEE5valueEvE4typeERS3_SC_(ptr noundef nonnull align 4 dereferenceable(4) %14, ptr noundef nonnull align 4 dereferenceable(4) %16) #16
  %17 = load ptr, ptr %3, align 8, !tbaa !65
  %18 = getelementptr inbounds nuw %"class.cv::UMat", ptr %17, i32 0, i32 3
  %19 = load ptr, ptr %4, align 8, !tbaa !65
  %20 = getelementptr inbounds nuw %"class.cv::UMat", ptr %19, i32 0, i32 3
  call void @_ZSt4swapIiENSt9enable_ifIXsr6__and_ISt6__not_ISt15__is_tuple_likeIT_EESt21is_move_constructibleIS3_ESt18is_move_assignableIS3_EEE5valueEvE4typeERS3_SC_(ptr noundef nonnull align 4 dereferenceable(4) %18, ptr noundef nonnull align 4 dereferenceable(4) %20) #16
  %21 = load ptr, ptr %3, align 8, !tbaa !65
  %22 = getelementptr inbounds nuw %"class.cv::UMat", ptr %21, i32 0, i32 4
  %23 = load ptr, ptr %4, align 8, !tbaa !65
  %24 = getelementptr inbounds nuw %"class.cv::UMat", ptr %23, i32 0, i32 4
  call void @_ZSt4swapIPN2cv12MatAllocatorEENSt9enable_ifIXsr6__and_ISt6__not_ISt15__is_tuple_likeIT_EESt21is_move_constructibleIS6_ESt18is_move_assignableIS6_EEE5valueEvE4typeERS6_SF_(ptr noundef nonnull align 8 dereferenceable(8) %22, ptr noundef nonnull align 8 dereferenceable(8) %24) #16
  %25 = load ptr, ptr %3, align 8, !tbaa !65
  %26 = getelementptr inbounds nuw %"class.cv::UMat", ptr %25, i32 0, i32 6
  %27 = load ptr, ptr %4, align 8, !tbaa !65
  %28 = getelementptr inbounds nuw %"class.cv::UMat", ptr %27, i32 0, i32 6
  call void @_ZSt4swapIPN2cv8UMatDataEENSt9enable_ifIXsr6__and_ISt6__not_ISt15__is_tuple_likeIT_EESt21is_move_constructibleIS6_ESt18is_move_assignableIS6_EEE5valueEvE4typeERS6_SF_(ptr noundef nonnull align 8 dereferenceable(8) %26, ptr noundef nonnull align 8 dereferenceable(8) %28) #16
  %29 = load ptr, ptr %3, align 8, !tbaa !65
  %30 = getelementptr inbounds nuw %"class.cv::UMat", ptr %29, i32 0, i32 7
  %31 = load ptr, ptr %4, align 8, !tbaa !65
  %32 = getelementptr inbounds nuw %"class.cv::UMat", ptr %31, i32 0, i32 7
  call void @_ZSt4swapImENSt9enable_ifIXsr6__and_ISt6__not_ISt15__is_tuple_likeIT_EESt21is_move_constructibleIS3_ESt18is_move_assignableIS3_EEE5valueEvE4typeERS3_SC_(ptr noundef nonnull align 8 dereferenceable(8) %30, ptr noundef nonnull align 8 dereferenceable(8) %32) #16
  %33 = load ptr, ptr %3, align 8, !tbaa !65
  %34 = getelementptr inbounds nuw %"class.cv::UMat", ptr %33, i32 0, i32 8
  %35 = getelementptr inbounds nuw %"struct.cv::MatSize", ptr %34, i32 0, i32 0
  %36 = load ptr, ptr %4, align 8, !tbaa !65
  %37 = getelementptr inbounds nuw %"class.cv::UMat", ptr %36, i32 0, i32 8
  %38 = getelementptr inbounds nuw %"struct.cv::MatSize", ptr %37, i32 0, i32 0
  call void @_ZSt4swapIPiENSt9enable_ifIXsr6__and_ISt6__not_ISt15__is_tuple_likeIT_EESt21is_move_constructibleIS4_ESt18is_move_assignableIS4_EEE5valueEvE4typeERS4_SD_(ptr noundef nonnull align 8 dereferenceable(8) %35, ptr noundef nonnull align 8 dereferenceable(8) %38) #16
  %39 = load ptr, ptr %3, align 8, !tbaa !65
  %40 = getelementptr inbounds nuw %"class.cv::UMat", ptr %39, i32 0, i32 9
  %41 = getelementptr inbounds nuw %"struct.cv::MatStep", ptr %40, i32 0, i32 0
  %42 = load ptr, ptr %4, align 8, !tbaa !65
  %43 = getelementptr inbounds nuw %"class.cv::UMat", ptr %42, i32 0, i32 9
  %44 = getelementptr inbounds nuw %"struct.cv::MatStep", ptr %43, i32 0, i32 0
  call void @_ZSt4swapIPmENSt9enable_ifIXsr6__and_ISt6__not_ISt15__is_tuple_likeIT_EESt21is_move_constructibleIS4_ESt18is_move_assignableIS4_EEE5valueEvE4typeERS4_SD_(ptr noundef nonnull align 8 dereferenceable(8) %41, ptr noundef nonnull align 8 dereferenceable(8) %44) #16
  %45 = load ptr, ptr %3, align 8, !tbaa !65
  %46 = getelementptr inbounds nuw %"class.cv::UMat", ptr %45, i32 0, i32 9
  %47 = getelementptr inbounds nuw %"struct.cv::MatStep", ptr %46, i32 0, i32 1
  %48 = getelementptr inbounds [2 x i64], ptr %47, i64 0, i64 0
  %49 = load ptr, ptr %4, align 8, !tbaa !65
  %50 = getelementptr inbounds nuw %"class.cv::UMat", ptr %49, i32 0, i32 9
  %51 = getelementptr inbounds nuw %"struct.cv::MatStep", ptr %50, i32 0, i32 1
  %52 = getelementptr inbounds [2 x i64], ptr %51, i64 0, i64 0
  call void @_ZSt4swapImENSt9enable_ifIXsr6__and_ISt6__not_ISt15__is_tuple_likeIT_EESt21is_move_constructibleIS3_ESt18is_move_assignableIS3_EEE5valueEvE4typeERS3_SC_(ptr noundef nonnull align 8 dereferenceable(8) %48, ptr noundef nonnull align 8 dereferenceable(8) %52) #16
  %53 = load ptr, ptr %3, align 8, !tbaa !65
  %54 = getelementptr inbounds nuw %"class.cv::UMat", ptr %53, i32 0, i32 9
  %55 = getelementptr inbounds nuw %"struct.cv::MatStep", ptr %54, i32 0, i32 1
  %56 = getelementptr inbounds [2 x i64], ptr %55, i64 0, i64 1
  %57 = load ptr, ptr %4, align 8, !tbaa !65
  %58 = getelementptr inbounds nuw %"class.cv::UMat", ptr %57, i32 0, i32 9
  %59 = getelementptr inbounds nuw %"struct.cv::MatStep", ptr %58, i32 0, i32 1
  %60 = getelementptr inbounds [2 x i64], ptr %59, i64 0, i64 1
  call void @_ZSt4swapImENSt9enable_ifIXsr6__and_ISt6__not_ISt15__is_tuple_likeIT_EESt21is_move_constructibleIS3_ESt18is_move_assignableIS3_EEE5valueEvE4typeERS3_SC_(ptr noundef nonnull align 8 dereferenceable(8) %56, ptr noundef nonnull align 8 dereferenceable(8) %60) #16
  %61 = load ptr, ptr %3, align 8, !tbaa !65
  %62 = getelementptr inbounds nuw %"class.cv::UMat", ptr %61, i32 0, i32 9
  %63 = getelementptr inbounds nuw %"struct.cv::MatStep", ptr %62, i32 0, i32 0
  %64 = load ptr, ptr %63, align 8, !tbaa !98
  %65 = load ptr, ptr %4, align 8, !tbaa !65
  %66 = getelementptr inbounds nuw %"class.cv::UMat", ptr %65, i32 0, i32 9
  %67 = getelementptr inbounds nuw %"struct.cv::MatStep", ptr %66, i32 0, i32 1
  %68 = getelementptr inbounds [2 x i64], ptr %67, i64 0, i64 0
  %69 = icmp eq ptr %64, %68
  br i1 %69, label %70, label %83

70:                                               ; preds = %2
  %71 = load ptr, ptr %3, align 8, !tbaa !65
  %72 = getelementptr inbounds nuw %"class.cv::UMat", ptr %71, i32 0, i32 9
  %73 = getelementptr inbounds nuw %"struct.cv::MatStep", ptr %72, i32 0, i32 1
  %74 = getelementptr inbounds [2 x i64], ptr %73, i64 0, i64 0
  %75 = load ptr, ptr %3, align 8, !tbaa !65
  %76 = getelementptr inbounds nuw %"class.cv::UMat", ptr %75, i32 0, i32 9
  %77 = getelementptr inbounds nuw %"struct.cv::MatStep", ptr %76, i32 0, i32 0
  store ptr %74, ptr %77, align 8, !tbaa !98
  %78 = load ptr, ptr %3, align 8, !tbaa !65
  %79 = getelementptr inbounds nuw %"class.cv::UMat", ptr %78, i32 0, i32 2
  %80 = load ptr, ptr %3, align 8, !tbaa !65
  %81 = getelementptr inbounds nuw %"class.cv::UMat", ptr %80, i32 0, i32 8
  %82 = getelementptr inbounds nuw %"struct.cv::MatSize", ptr %81, i32 0, i32 0
  store ptr %79, ptr %82, align 8, !tbaa !96
  br label %83

83:                                               ; preds = %70, %2
  %84 = load ptr, ptr %4, align 8, !tbaa !65
  %85 = getelementptr inbounds nuw %"class.cv::UMat", ptr %84, i32 0, i32 9
  %86 = getelementptr inbounds nuw %"struct.cv::MatStep", ptr %85, i32 0, i32 0
  %87 = load ptr, ptr %86, align 8, !tbaa !98
  %88 = load ptr, ptr %3, align 8, !tbaa !65
  %89 = getelementptr inbounds nuw %"class.cv::UMat", ptr %88, i32 0, i32 9
  %90 = getelementptr inbounds nuw %"struct.cv::MatStep", ptr %89, i32 0, i32 1
  %91 = getelementptr inbounds [2 x i64], ptr %90, i64 0, i64 0
  %92 = icmp eq ptr %87, %91
  br i1 %92, label %93, label %106

93:                                               ; preds = %83
  %94 = load ptr, ptr %4, align 8, !tbaa !65
  %95 = getelementptr inbounds nuw %"class.cv::UMat", ptr %94, i32 0, i32 9
  %96 = getelementptr inbounds nuw %"struct.cv::MatStep", ptr %95, i32 0, i32 1
  %97 = getelementptr inbounds [2 x i64], ptr %96, i64 0, i64 0
  %98 = load ptr, ptr %4, align 8, !tbaa !65
  %99 = getelementptr inbounds nuw %"class.cv::UMat", ptr %98, i32 0, i32 9
  %100 = getelementptr inbounds nuw %"struct.cv::MatStep", ptr %99, i32 0, i32 0
  store ptr %97, ptr %100, align 8, !tbaa !98
  %101 = load ptr, ptr %4, align 8, !tbaa !65
  %102 = getelementptr inbounds nuw %"class.cv::UMat", ptr %101, i32 0, i32 2
  %103 = load ptr, ptr %4, align 8, !tbaa !65
  %104 = getelementptr inbounds nuw %"class.cv::UMat", ptr %103, i32 0, i32 8
  %105 = getelementptr inbounds nuw %"struct.cv::MatSize", ptr %104, i32 0, i32 0
  store ptr %102, ptr %105, align 8, !tbaa !96
  br label %106

106:                                              ; preds = %93, %83
  ret void
}