; Function Attrs: mustprogress nofree norecurse nosync nounwind willreturn memory(argmem: readwrite) uwtable
define void @_ZN2cv4swapERNS_4UMatES1_(ptr noundef nonnull align 8 dereferenceable(80) %0, ptr noundef nonnull align 8 dereferenceable(80) %1) local_unnamed_addr #11 {
  %3 = load i32, ptr %0, align 8, !tbaa !28
  %4 = load i32, ptr %1, align 8, !tbaa !28
  store i32 %4, ptr %0, align 8, !tbaa !28
  store i32 %3, ptr %1, align 8, !tbaa !28
  %5 = getelementptr inbounds nuw i8, ptr %0, i64 4
  %6 = getelementptr inbounds nuw i8, ptr %1, i64 4
  %7 = load i32, ptr %5, align 4, !tbaa !28
  %8 = load i32, ptr %6, align 4, !tbaa !28
  store i32 %8, ptr %5, align 4, !tbaa !28
  store i32 %7, ptr %6, align 4, !tbaa !28
  %9 = getelementptr inbounds nuw i8, ptr %0, i64 8
  %10 = getelementptr inbounds nuw i8, ptr %1, i64 8
  %11 = load i32, ptr %9, align 8, !tbaa !28
  %12 = load i32, ptr %10, align 8, !tbaa !28
  store i32 %12, ptr %9, align 8, !tbaa !28
  store i32 %11, ptr %10, align 8, !tbaa !28
  %13 = getelementptr inbounds nuw i8, ptr %0, i64 12
  %14 = getelementptr inbounds nuw i8, ptr %1, i64 12
  %15 = load i32, ptr %13, align 4, !tbaa !28
  %16 = load i32, ptr %14, align 4, !tbaa !28
  store i32 %16, ptr %13, align 4, !tbaa !28
  store i32 %15, ptr %14, align 4, !tbaa !28
  %17 = getelementptr inbounds nuw i8, ptr %0, i64 16
  %18 = getelementptr inbounds nuw i8, ptr %1, i64 16
  %19 = load ptr, ptr %17, align 8, !tbaa !82
  %20 = load ptr, ptr %18, align 8, !tbaa !82
  store ptr %20, ptr %17, align 8, !tbaa !82
  store ptr %19, ptr %18, align 8, !tbaa !82
  %21 = getelementptr inbounds nuw i8, ptr %0, i64 32
  %22 = getelementptr inbounds nuw i8, ptr %1, i64 32
  %23 = load ptr, ptr %21, align 8, !tbaa !36
  %24 = load ptr, ptr %22, align 8, !tbaa !36
  store ptr %24, ptr %21, align 8, !tbaa !36
  store ptr %23, ptr %22, align 8, !tbaa !36
  %25 = getelementptr inbounds nuw i8, ptr %0, i64 40
  %26 = getelementptr inbounds nuw i8, ptr %1, i64 40
  %27 = load i64, ptr %25, align 8, !tbaa !69
  %28 = load i64, ptr %26, align 8, !tbaa !69
  store i64 %28, ptr %25, align 8, !tbaa !69
  store i64 %27, ptr %26, align 8, !tbaa !69
  %29 = getelementptr inbounds nuw i8, ptr %0, i64 48
  %30 = getelementptr inbounds nuw i8, ptr %1, i64 48
  %31 = load ptr, ptr %29, align 8, !tbaa !83
  %32 = load ptr, ptr %30, align 8, !tbaa !83
  store ptr %32, ptr %29, align 8, !tbaa !83
  store ptr %31, ptr %30, align 8, !tbaa !83
  %33 = getelementptr inbounds nuw i8, ptr %0, i64 56
  %34 = getelementptr inbounds nuw i8, ptr %1, i64 56
  %35 = load ptr, ptr %33, align 8, !tbaa !84
  %36 = load ptr, ptr %34, align 8, !tbaa !84
  store ptr %36, ptr %33, align 8, !tbaa !84
  store ptr %35, ptr %34, align 8, !tbaa !84
  %37 = getelementptr inbounds nuw i8, ptr %0, i64 64
  %38 = getelementptr inbounds nuw i8, ptr %1, i64 64
  %39 = load i64, ptr %37, align 8, !tbaa !69
  %40 = load i64, ptr %38, align 8, !tbaa !69
  store i64 %40, ptr %37, align 8, !tbaa !69
  store i64 %39, ptr %38, align 8, !tbaa !69
  %41 = getelementptr inbounds nuw i8, ptr %0, i64 72
  %42 = getelementptr inbounds nuw i8, ptr %1, i64 72
  %43 = load i64, ptr %41, align 8, !tbaa !69
  %44 = load i64, ptr %42, align 8, !tbaa !69
  store i64 %44, ptr %41, align 8, !tbaa !69
  store i64 %43, ptr %42, align 8, !tbaa !69
  %45 = load ptr, ptr %33, align 8, !tbaa !67
  %46 = icmp eq ptr %45, %38
  br i1 %46, label %47, label %48

47:                                               ; preds = %2
  store ptr %37, ptr %33, align 8, !tbaa !67
  store ptr %9, ptr %29, align 8, !tbaa !61
  %.pre = load ptr, ptr %34, align 8, !tbaa !67
  br label %48

48:                                               ; preds = %47, %2
  %49 = phi ptr [ %.pre, %47 ], [ %35, %2 ]
  %50 = icmp eq ptr %49, %37
  br i1 %50, label %51, label %52

51:                                               ; preds = %48
  store ptr %38, ptr %34, align 8, !tbaa !67
  store ptr %10, ptr %30, align 8, !tbaa !61
  br label %52

52:                                               ; preds = %51, %48
  ret void
}